; Function Attrs: mustprogress nounwind uwtable
define hidden void @_ZN14ShenandoahHeap17reset_mark_bitmapEv(ptr nocapture noundef nonnull readonly align 8 dereferenceable(2657) %0) local_unnamed_addr #1 align 2 {
  %2 = alloca %class.ShenandoahResetBitmapTask, align 8
  %3 = getelementptr inbounds i8, ptr %0, i64 504
  %4 = getelementptr inbounds i8, ptr %0, i64 2248
  %5 = load ptr, ptr %4, align 8
  tail call void @_ZN24ShenandoahMarkingContext15mark_incompleteEv(ptr noundef nonnull align 8 dereferenceable(208) %5) #26
  %6 = getelementptr inbounds i8, ptr %2, i64 8
  store ptr @.str.93, ptr %6, align 8
  %7 = getelementptr inbounds i8, ptr %2, i64 16
  %8 = tail call noundef i32 @_ZN4GCId20current_or_undefinedEv() #26
  store i32 %8, ptr %7, align 8
  store ptr getelementptr inbounds inrange(-16, 8) (i8, ptr @_ZTV25ShenandoahResetBitmapTask, i64 16), ptr %2, align 8
  %9 = getelementptr inbounds i8, ptr %2, i64 24
  %10 = load ptr, ptr @_ZN8Universe14_collectedHeapE, align 8
  store ptr %10, ptr %9, align 8
  %11 = getelementptr inbounds i8, ptr %2, i64 96
  store volatile i64 0, ptr %11, align 8
  %12 = load ptr, ptr %3, align 8
  call void @_ZN13WorkerThreads8run_taskEP10WorkerTask(ptr noundef nonnull align 8 dereferenceable(120) %12, ptr noundef nonnull %2) #26
  ret void
}